   1              		.syntax unified
   2              		.cpu cortex-m3
   3              		.fpu softvfp
   4              		.eabi_attribute 20, 1
   5              		.eabi_attribute 21, 1
   6              		.eabi_attribute 23, 3
   7              		.eabi_attribute 24, 1
   8              		.eabi_attribute 25, 1
   9              		.eabi_attribute 26, 1
  10              		.eabi_attribute 30, 4
  11              		.eabi_attribute 34, 1
  12              		.eabi_attribute 18, 4
  13              		.thumb
  14              		.file	"cr_startup_lpc175x.c"
  15              		.section	.after_vectors,"ax",%progbits
  16              		.align	1
  17              		.weak	NMI_Handler
  18              		.thumb
  19              		.thumb_func
  21              	NMI_Handler:
  22              		@ args = 0, pretend = 0, frame = 0
  23              		@ frame_needed = 0, uses_anonymous_args = 0
  24              		@ link register save eliminated.
  25              	.L2:
  26 0000 FEE7     		b	.L2
  28              		.align	1
  29              		.weak	HardFault_Handler
  30              		.thumb
  31              		.thumb_func
  33              	HardFault_Handler:
  34              		@ args = 0, pretend = 0, frame = 0
  35              		@ frame_needed = 0, uses_anonymous_args = 0
  36              		@ link register save eliminated.
  37              	.L4:
  38 0002 FEE7     		b	.L4
  40              		.align	1
  41              		.weak	MemManage_Handler
  42              		.thumb
  43              		.thumb_func
  45              	MemManage_Handler:
  46              		@ args = 0, pretend = 0, frame = 0
  47              		@ frame_needed = 0, uses_anonymous_args = 0
  48              		@ link register save eliminated.
  49              	.L6:
  50 0004 FEE7     		b	.L6
  52              		.align	1
  53              		.weak	BusFault_Handler
  54              		.thumb
  55              		.thumb_func
  57              	BusFault_Handler:
  58              		@ args = 0, pretend = 0, frame = 0
  59              		@ frame_needed = 0, uses_anonymous_args = 0
  60              		@ link register save eliminated.
  61              	.L8:
  62 0006 FEE7     		b	.L8
  64              		.align	1
  65              		.weak	UsageFault_Handler
  66              		.thumb
  67              		.thumb_func
  69              	UsageFault_Handler:
  70              		@ args = 0, pretend = 0, frame = 0
  71              		@ frame_needed = 0, uses_anonymous_args = 0
  72              		@ link register save eliminated.
  73              	.L10:
  74 0008 FEE7     		b	.L10
  76              		.align	1
  77              		.weak	SVC_Handler
  78              		.thumb
  79              		.thumb_func
  81              	SVC_Handler:
  82              		@ args = 0, pretend = 0, frame = 0
  83              		@ frame_needed = 0, uses_anonymous_args = 0
  84              		@ link register save eliminated.
  85              	.L12:
  86 000a FEE7     		b	.L12
  88              		.align	1
  89              		.weak	DebugMon_Handler
  90              		.thumb
  91              		.thumb_func
  93              	DebugMon_Handler:
  94              		@ args = 0, pretend = 0, frame = 0
  95              		@ frame_needed = 0, uses_anonymous_args = 0
  96              		@ link register save eliminated.
  97              	.L14:
  98 000c FEE7     		b	.L14
 100              		.align	1
 101              		.weak	PendSV_Handler
 102              		.thumb
 103              		.thumb_func
 105              	PendSV_Handler:
 106              		@ args = 0, pretend = 0, frame = 0
 107              		@ frame_needed = 0, uses_anonymous_args = 0
 108              		@ link register save eliminated.
 109              	.L16:
 110 000e FEE7     		b	.L16
 112              		.align	1
 113              		.weak	SysTick_Handler
 114              		.thumb
 115              		.thumb_func
 117              	SysTick_Handler:
 118              		@ args = 0, pretend = 0, frame = 0
 119              		@ frame_needed = 0, uses_anonymous_args = 0
 120              		@ link register save eliminated.
 121              	.L18:
 122 0010 FEE7     		b	.L18
 124              		.align	1
 125              		.weak	IntDefaultHandler
 126              		.thumb
 127              		.thumb_func
 129              	IntDefaultHandler:
 130              		@ args = 0, pretend = 0, frame = 0
 131              		@ frame_needed = 0, uses_anonymous_args = 0
 132              		@ link register save eliminated.
 133              	.L20:
 134 0012 FEE7     		b	.L20
 136              		.weak	TIMER0_IRQHandler
 137              		.thumb_set TIMER0_IRQHandler,IntDefaultHandler
 138              		.weak	TIMER1_IRQHandler
 139              		.thumb_set TIMER1_IRQHandler,IntDefaultHandler
 140              		.weak	TIMER2_IRQHandler
 141              		.thumb_set TIMER2_IRQHandler,IntDefaultHandler
 142              		.weak	TIMER3_IRQHandler
 143              		.thumb_set TIMER3_IRQHandler,IntDefaultHandler
 144              		.weak	UART0_IRQHandler
 145              		.thumb_set UART0_IRQHandler,IntDefaultHandler
 146              		.weak	UART1_IRQHandler
 147              		.thumb_set UART1_IRQHandler,IntDefaultHandler
 148              		.weak	UART2_IRQHandler
 149              		.thumb_set UART2_IRQHandler,IntDefaultHandler
 150              		.weak	UART3_IRQHandler
 151              		.thumb_set UART3_IRQHandler,IntDefaultHandler
 152              		.weak	PWM1_IRQHandler
 153              		.thumb_set PWM1_IRQHandler,IntDefaultHandler
 154              		.weak	I2C0_IRQHandler
 155              		.thumb_set I2C0_IRQHandler,IntDefaultHandler
 156              		.weak	I2C1_IRQHandler
 157              		.thumb_set I2C1_IRQHandler,IntDefaultHandler
 158              		.weak	I2C2_IRQHandler
 159              		.thumb_set I2C2_IRQHandler,IntDefaultHandler
 160              		.weak	SPI_IRQHandler
 161              		.thumb_set SPI_IRQHandler,IntDefaultHandler
 162              		.weak	SSP0_IRQHandler
 163              		.thumb_set SSP0_IRQHandler,IntDefaultHandler
 164              		.weak	SSP1_IRQHandler
 165              		.thumb_set SSP1_IRQHandler,IntDefaultHandler
 166              		.weak	PLL0_IRQHandler
 167              		.thumb_set PLL0_IRQHandler,IntDefaultHandler
 168              		.weak	RTC_IRQHandler
 169              		.thumb_set RTC_IRQHandler,IntDefaultHandler
 170              		.weak	EINT0_IRQHandler
 171              		.thumb_set EINT0_IRQHandler,IntDefaultHandler
 172              		.weak	EINT1_IRQHandler
 173              		.thumb_set EINT1_IRQHandler,IntDefaultHandler
 174              		.weak	EINT2_IRQHandler
 175              		.thumb_set EINT2_IRQHandler,IntDefaultHandler
 176              		.weak	EINT3_IRQHandler
 177              		.thumb_set EINT3_IRQHandler,IntDefaultHandler
 178              		.weak	ADC_IRQHandler
 179              		.thumb_set ADC_IRQHandler,IntDefaultHandler
 180              		.weak	BOD_IRQHandler
 181              		.thumb_set BOD_IRQHandler,IntDefaultHandler
 182              		.weak	USB_IRQHandler
 183              		.thumb_set USB_IRQHandler,IntDefaultHandler
 184              		.weak	CAN_IRQHandler
 185              		.thumb_set CAN_IRQHandler,IntDefaultHandler
 186              		.weak	DMA_IRQHandler
 187              		.thumb_set DMA_IRQHandler,IntDefaultHandler
 188              		.weak	I2S_IRQHandler
 189              		.thumb_set I2S_IRQHandler,IntDefaultHandler
 190              		.weak	ENET_IRQHandler
 191              		.thumb_set ENET_IRQHandler,IntDefaultHandler
 192              		.weak	RIT_IRQHandler
 193              		.thumb_set RIT_IRQHandler,IntDefaultHandler
 194              		.weak	MCPWM_IRQHandler
 195              		.thumb_set MCPWM_IRQHandler,IntDefaultHandler
 196              		.weak	QEI_IRQHandler
 197              		.thumb_set QEI_IRQHandler,IntDefaultHandler
 198              		.weak	PLL1_IRQHandler
 199              		.thumb_set PLL1_IRQHandler,IntDefaultHandler
 200              		.weak	USBActivity_IRQHandler
 201              		.thumb_set USBActivity_IRQHandler,IntDefaultHandler
 202              		.weak	CANActivity_IRQHandler
 203              		.thumb_set CANActivity_IRQHandler,IntDefaultHandler
 204              		.weak	WDT_IRQHandler
 205              		.thumb_set WDT_IRQHandler,IntDefaultHandler
 206              		.align	1
 207              		.global	data_init
 208              		.thumb
 209              		.thumb_func
 211              	data_init:
 212              		@ args = 0, pretend = 0, frame = 0
 213              		@ frame_needed = 0, uses_anonymous_args = 0
 214 0014 10B5     		push	{r4, lr}
 215 0016 0023     		movs	r3, #0
 216              	.L22:
 217 0018 9342     		cmp	r3, r2
 218 001a 03D2     		bcs	.L25
 219              	.L23:
 220 001c 1C58     		ldr	r4, [r3, r0]
 221 001e 5C50     		str	r4, [r3, r1]
 222 0020 0433     		adds	r3, r3, #4
 223 0022 F9E7     		b	.L22
 224              	.L25:
 225 0024 10BD     		pop	{r4, pc}
 227              		.align	1
 228              		.global	bss_init
 229              		.thumb
 230              		.thumb_func
 232              	bss_init:
 233              		@ args = 0, pretend = 0, frame = 0
 234              		@ frame_needed = 0, uses_anonymous_args = 0
 235              		@ link register save eliminated.
 236 0026 0023     		movs	r3, #0
 237              	.L27:
 238 0028 8B42     		cmp	r3, r1
 239 002a 03D2     		bcs	.L29
 240              	.L28:
 241 002c 0022     		movs	r2, #0
 242 002e 1A50     		str	r2, [r3, r0]
 243 0030 0433     		adds	r3, r3, #4
 244 0032 F9E7     		b	.L27
 245              	.L29:
 246 0034 7047     		bx	lr
 248              		.align	1
 249              		.global	ResetISR
 250              		.thumb
 251              		.thumb_func
 253              	ResetISR:
 254              		@ args = 0, pretend = 0, frame = 0
 255              		@ frame_needed = 0, uses_anonymous_args = 0
 256 0036 10B5     		push	{r4, lr}
 257 0038 0A4C     		ldr	r4, .L38
 258              	.L31:
 259 003a 0B4B     		ldr	r3, .L38+4
 260 003c 9C42     		cmp	r4, r3
 261 003e 05D2     		bcs	.L36
 262              	.L32:
 263 0040 94E80700 		ldmia	r4, {r0, r1, r2}
 264 0044 0C34     		adds	r4, r4, #12
 265 0046 FFF7FEFF 		bl	data_init
 266 004a F6E7     		b	.L31
 267              	.L36:
 268 004c 0748     		ldr	r0, .L38+8
 269 004e 8442     		cmp	r4, r0
 270 0050 05D2     		bcs	.L37
 271              	.L34:
 272 0052 94E80300 		ldmia	r4, {r0, r1}
 273 0056 0834     		adds	r4, r4, #8
 274 0058 FFF7FEFF 		bl	bss_init
 275 005c F6E7     		b	.L36
 276              	.L37:
 277 005e FFF7FEFF 		bl	main
 278              	.L35:
 279 0062 FEE7     		b	.L35
 280              	.L39:
 281              		.align	2
 282              	.L38:
 283 0064 00000000 		.word	__data_section_table
 284 0068 00000000 		.word	__data_section_table_end
 285 006c 00000000 		.word	__bss_section_table_end
 287              		.global	g_pfnVectors
 288              		.section	.isr_vector,"a",%progbits
 289              		.align	2
 292              	g_pfnVectors:
 293 0000 00000000 		.word	_vStackTop
 294 0004 00000000 		.word	ResetISR
 295 0008 00000000 		.word	NMI_Handler
 296 000c 00000000 		.word	HardFault_Handler
 297 0010 00000000 		.word	MemManage_Handler
 298 0014 00000000 		.word	BusFault_Handler
 299 0018 00000000 		.word	UsageFault_Handler
 300 001c 00000000 		.word	0
 301 0020 00000000 		.word	0
 302 0024 00000000 		.word	0
 303 0028 00000000 		.word	0
 304 002c 00000000 		.word	SVC_Handler
 305 0030 00000000 		.word	DebugMon_Handler
 306 0034 00000000 		.word	0
 307 0038 00000000 		.word	PendSV_Handler
 308 003c 00000000 		.word	SysTick_Handler
 309 0040 00000000 		.word	WDT_IRQHandler
 310 0044 00000000 		.word	TIMER0_IRQHandler
 311 0048 00000000 		.word	TIMER1_IRQHandler
 312 004c 00000000 		.word	TIMER2_IRQHandler
 313 0050 00000000 		.word	TIMER3_IRQHandler
 314 0054 00000000 		.word	UART0_IRQHandler
 315 0058 00000000 		.word	UART1_IRQHandler
 316 005c 00000000 		.word	UART2_IRQHandler
 317 0060 00000000 		.word	UART3_IRQHandler
 318 0064 00000000 		.word	PWM1_IRQHandler
 319 0068 00000000 		.word	I2C0_IRQHandler
 320 006c 00000000 		.word	I2C1_IRQHandler
 321 0070 00000000 		.word	I2C2_IRQHandler
 322 0074 00000000 		.word	SPI_IRQHandler
 323 0078 00000000 		.word	SSP0_IRQHandler
 324 007c 00000000 		.word	SSP1_IRQHandler
 325 0080 00000000 		.word	PLL0_IRQHandler
 326 0084 00000000 		.word	RTC_IRQHandler
 327 0088 00000000 		.word	EINT0_IRQHandler
 328 008c 00000000 		.word	EINT1_IRQHandler
 329 0090 00000000 		.word	EINT2_IRQHandler
 330 0094 00000000 		.word	EINT3_IRQHandler
 331 0098 00000000 		.word	ADC_IRQHandler
 332 009c 00000000 		.word	BOD_IRQHandler
 333 00a0 00000000 		.word	USB_IRQHandler
 334 00a4 00000000 		.word	CAN_IRQHandler
 335 00a8 00000000 		.word	DMA_IRQHandler
 336 00ac 00000000 		.word	I2S_IRQHandler
 337 00b0 00000000 		.word	ENET_IRQHandler
 338 00b4 00000000 		.word	RIT_IRQHandler
 339 00b8 00000000 		.word	MCPWM_IRQHandler
 340 00bc 00000000 		.word	QEI_IRQHandler
 341 00c0 00000000 		.word	PLL1_IRQHandler
 342 00c4 00000000 		.word	USBActivity_IRQHandler
 343 00c8 00000000 		.word	CANActivity_IRQHandler
 344              		.ident	"GCC: (GNU Tools for ARM Embedded Processors) 4.7.4 20130913 (release) [ARM/embedded-4_7-br